; Function Attrs: nounwind uwtable
define noalias noundef ptr @Wlc_NtkCollectMemSizes(ptr noundef readonly captures(none) %0) local_unnamed_addr #0 {
  %2 = tail call noalias dereferenceable_or_null(16) ptr @malloc(i64 noundef 16) #25
  %3 = getelementptr inbounds nuw i8, ptr %2, i64 4
  store i32 0, ptr %3, align 4, !tbaa !26
  store i32 16, ptr %2, align 8, !tbaa !25
  %4 = tail call noalias dereferenceable_or_null(64) ptr @malloc(i64 noundef 64) #25
  %5 = getelementptr inbounds nuw i8, ptr %2, i64 8
  store ptr %4, ptr %5, align 8, !tbaa !3
  %6 = getelementptr i8, ptr %0, i64 648
  %.val1417 = load i32, ptr %6, align 8, !tbaa !45
  %7 = icmp sgt i32 %.val1417, 1
  br i1 %7, label %.lr.ph, label %.critedge

.lr.ph:                                           ; preds = %1
  %8 = getelementptr i8, ptr %0, i64 640
  br label %9

9:                                                ; preds = %.lr.ph, %Vec_IntPushUnique.exit
  %.val1423 = phi i32 [ %.val1417, %.lr.ph ], [ %.val14, %Vec_IntPushUnique.exit ]
  %10 = phi ptr [ %4, %.lr.ph ], [ %.pre.i.i21, %Vec_IntPushUnique.exit ]
  %11 = phi ptr [ %4, %.lr.ph ], [ %60, %Vec_IntPushUnique.exit ]
  %indvars.iv = phi i64 [ 1, %.lr.ph ], [ %indvars.iv.next, %Vec_IntPushUnique.exit ]
  %.val = load ptr, ptr %8, align 8, !tbaa !11
  %12 = getelementptr inbounds nuw %struct.Wlc_Obj_t_, ptr %.val, i64 %indvars.iv
  %.val15 = load i16, ptr %12, align 8
  %13 = and i16 %.val15, 63
  %14 = and i16 %.val15, 62
  %switch = icmp eq i16 %14, 54
  br i1 %switch, label %15, label %Vec_IntPushUnique.exit

15:                                               ; preds = %9
  %16 = getelementptr inbounds nuw i8, ptr %12, i64 4
  %17 = load i32, ptr %16, align 4, !tbaa !20
  %18 = icmp ugt i32 %17, 2
  br i1 %18, label %Wlc_ObjHasArray.exit.thread.i.i.i, label %19

19:                                               ; preds = %15
  switch i16 %13, label %22 [
    i16 6, label %Wlc_ObjHasArray.exit.thread.i.i.i
    i16 22, label %Wlc_ObjHasArray.exit.thread.i.i.i
  ]

Wlc_ObjHasArray.exit.thread.i.i.i:                ; preds = %19, %19, %15
  %20 = getelementptr inbounds nuw i8, ptr %12, i64 16
  %21 = load ptr, ptr %20, align 8, !tbaa !22
  br label %Wlc_ObjFanin.exit

22:                                               ; preds = %19
  %23 = getelementptr inbounds nuw i8, ptr %12, i64 16
  br label %Wlc_ObjFanin.exit

Wlc_ObjFanin.exit:                                ; preds = %Wlc_ObjHasArray.exit.thread.i.i.i, %22
  %24 = phi ptr [ %21, %Wlc_ObjHasArray.exit.thread.i.i.i ], [ %23, %22 ]
  %25 = load i32, ptr %24, align 4, !tbaa !10
  %26 = sext i32 %25 to i64
  %27 = getelementptr inbounds %struct.Wlc_Obj_t_, ptr %.val, i64 %26
  %28 = getelementptr i8, ptr %27, i64 8
  %.val12 = load i32, ptr %28, align 8, !tbaa !27
  %29 = getelementptr i8, ptr %27, i64 12
  %.val13 = load i32, ptr %29, align 4, !tbaa !28
  %30 = sub nsw i32 %.val12, %.val13
  %31 = tail call i32 @llvm.abs.i32(i32 %30, i1 true)
  %32 = add nuw nsw i32 %31, 1
  %33 = load i32, ptr %3, align 4, !tbaa !26
  %34 = icmp sgt i32 %33, 0
  br i1 %34, label %.lr.ph.i, label %._crit_edge.i

.lr.ph.i:                                         ; preds = %Wlc_ObjFanin.exit
  %wide.trip.count.i = zext nneg i32 %33 to i64
  br label %36

35:                                               ; preds = %36
  %indvars.iv.next.i = add nuw nsw i64 %indvars.iv.i, 1
  %exitcond.not.i = icmp eq i64 %indvars.iv.next.i, %wide.trip.count.i
  br i1 %exitcond.not.i, label %._crit_edge.i, label %36, !llvm.loop !46

36:                                               ; preds = %35, %.lr.ph.i
  %indvars.iv.i = phi i64 [ 0, %.lr.ph.i ], [ %indvars.iv.next.i, %35 ]
  %37 = getelementptr inbounds nuw i32, ptr %11, i64 %indvars.iv.i
  %38 = load i32, ptr %37, align 4, !tbaa !10
  %39 = icmp eq i32 %38, %32
  br i1 %39, label %Vec_IntPushUnique.exit, label %35

._crit_edge.i:                                    ; preds = %35, %Wlc_ObjFanin.exit
  %40 = load i32, ptr %2, align 8, !tbaa !25
  %41 = icmp eq i32 %33, %40
  br i1 %41, label %42, label %Vec_IntPush.exit.i

42:                                               ; preds = %._crit_edge.i
  %43 = icmp slt i32 %33, 16
  br i1 %43, label %44, label %49

44:                                               ; preds = %42
  %.not9.i.i.i = icmp eq ptr %10, null
  br i1 %.not9.i.i.i, label %47, label %45

45:                                               ; preds = %44
  %46 = tail call dereferenceable_or_null(64) ptr @realloc(ptr noundef nonnull %10, i64 noundef 64) #27
  br label %Vec_IntPush.exit.i.sink.split

47:                                               ; preds = %44
  %48 = tail call noalias dereferenceable_or_null(64) ptr @malloc(i64 noundef 64) #25
  br label %Vec_IntPush.exit.i.sink.split

49:                                               ; preds = %42
  %50 = shl nuw nsw i32 %33, 1
  %.not9.i9.i.i = icmp eq ptr %10, null
  %51 = zext nneg i32 %50 to i64
  %52 = shl nuw nsw i64 %51, 2
  br i1 %.not9.i9.i.i, label %55, label %53

53:                                               ; preds = %49
  %54 = tail call ptr @realloc(ptr noundef nonnull %10, i64 noundef %52) #27
  br label %Vec_IntPush.exit.i.sink.split

55:                                               ; preds = %49
  %56 = tail call noalias ptr @malloc(i64 noundef %52) #25
  br label %Vec_IntPush.exit.i.sink.split

Vec_IntPush.exit.i.sink.split:                    ; preds = %53, %55, %45, %47
  %.sink25 = phi ptr [ %46, %45 ], [ %48, %47 ], [ %54, %53 ], [ %56, %55 ]
  %.sink = phi i32 [ 16, %45 ], [ 16, %47 ], [ %50, %53 ], [ %50, %55 ]
  store ptr %.sink25, ptr %5, align 8, !tbaa !3
  store i32 %.sink, ptr %2, align 8, !tbaa !25
  br label %Vec_IntPush.exit.i

Vec_IntPush.exit.i:                               ; preds = %Vec_IntPush.exit.i.sink.split, %._crit_edge.i
  %.pre.i.i22 = phi ptr [ %10, %._crit_edge.i ], [ %.sink25, %Vec_IntPush.exit.i.sink.split ]
  %57 = add nsw i32 %33, 1
  store i32 %57, ptr %3, align 4, !tbaa !26
  %58 = sext i32 %33 to i64
  %59 = getelementptr inbounds i32, ptr %.pre.i.i22, i64 %58
  store i32 %32, ptr %59, align 4, !tbaa !10
  %.val14.pre = load i32, ptr %6, align 8, !tbaa !45
  br label %Vec_IntPushUnique.exit

Vec_IntPushUnique.exit:                           ; preds = %36, %9, %Vec_IntPush.exit.i
  %.val14 = phi i32 [ %.val1423, %9 ], [ %.val14.pre, %Vec_IntPush.exit.i ], [ %.val1423, %36 ]
  %.pre.i.i21 = phi ptr [ %10, %9 ], [ %.pre.i.i22, %Vec_IntPush.exit.i ], [ %10, %36 ]
  %60 = phi ptr [ %11, %9 ], [ %.pre.i.i22, %Vec_IntPush.exit.i ], [ %11, %36 ]
  %indvars.iv.next = add nuw nsw i64 %indvars.iv, 1
  %61 = sext i32 %.val14 to i64
  %62 = icmp slt i64 %indvars.iv.next, %61
  br i1 %62, label %9, label %.critedge, !llvm.loop !47

.critedge:                                        ; preds = %Vec_IntPushUnique.exit, %1
  ret ptr %2
}